target datalayout = "e-m:e-p270:32:32-p271:32:32-p272:64:64-i64:64-i128:128-f80:128-n8:16:32:64-S128"
target triple = "x86_64-pc-linux-gnu"

%struct.AVChannelLayout = type { i32, i32, %union.anon.1, ptr }
%union.anon.1 = type { i64 }
%struct.AVFilterContext = type { ptr, ptr, ptr, ptr, ptr, i32, ptr, ptr, i32, ptr, ptr, i32, i32, ptr, ptr, ptr, ptr, i32, ptr, i32, i32 }
%struct.AVSyncTestContext = type { ptr, i32, i32, %struct.AVRational, i32, i64, i64, i64, float, i32, i32, i32, i32, i32, i32, i32, %struct.AVRational, %struct.AVRational, %struct.AVRational, %struct.AVRational, i64, [3 x [4 x i8]], %struct.FFDrawContext, %struct.FFDrawColor, %struct.FFDrawColor, %struct.FFDrawColor }
%struct.AVRational = type { i32, i32 }
%struct.FFDrawContext = type { ptr, i32, i32, [4 x i32], [4 x i8], [4 x i8], i8, i8, i32, i32, i32, [3 x [3 x double]] }
%struct.FFDrawColor = type { [4 x i8], [4 x %union.anon.2] }
%union.anon.2 = type { [4 x i32] }
%struct.AVFilterFormatsConfig = type { ptr, ptr, ptr, ptr, ptr }
%struct.AVFilterLink = type { ptr, ptr, ptr, ptr, i32, i32, i32, i32, %struct.AVRational, i32, i32, i32, %struct.AVChannelLayout, %struct.AVRational, ptr, i32, %struct.AVFilterFormatsConfig, %struct.AVFilterFormatsConfig }
%struct.FilterLink = type { %struct.AVFilterLink, ptr, i64, i64, i32, i32, i64, i64, i64, i64, %struct.AVRational, ptr }

@.str.4 = private unnamed_addr constant [36 x i8] c"Failed to initialize FFDrawContext\0A\00", align 1

; Function Attrs: inlinehint nounwind uwtable
define internal i64 @av_make_q(i32 noundef %0, i32 noundef %1) #6 {
  %3 = alloca %struct.AVRational, align 4
  %4 = alloca i32, align 4
  %5 = alloca i32, align 4
  store i32 %0, ptr %4, align 4, !tbaa !34
  store i32 %1, ptr %5, align 4, !tbaa !34
  %6 = getelementptr inbounds nuw %struct.AVRational, ptr %3, i32 0, i32 0
  %7 = load i32, ptr %4, align 4, !tbaa !34
  store i32 %7, ptr %6, align 4, !tbaa !52
  %8 = getelementptr inbounds nuw %struct.AVRational, ptr %3, i32 0, i32 1
  %9 = load i32, ptr %5, align 4, !tbaa !34
  store i32 %9, ptr %8, align 4, !tbaa !53
  %10 = load i64, ptr %3, align 4
  ret i64 %10
}

; Function Attrs: alwaysinline nounwind uwtable
define internal i64 @av_inv_q(i64 %0) #7 {
  %2 = alloca %struct.AVRational, align 4
  %3 = alloca %struct.AVRational, align 4
  store i64 %0, ptr %3, align 4
  %4 = getelementptr inbounds nuw %struct.AVRational, ptr %2, i32 0, i32 0
  %5 = getelementptr inbounds nuw %struct.AVRational, ptr %3, i32 0, i32 1
  %6 = load i32, ptr %5, align 4, !tbaa !53
  store i32 %6, ptr %4, align 4, !tbaa !52
  %7 = getelementptr inbounds nuw %struct.AVRational, ptr %2, i32 0, i32 1
  %8 = getelementptr inbounds nuw %struct.AVRational, ptr %3, i32 0, i32 0
  %9 = load i32, ptr %8, align 4, !tbaa !52
  store i32 %9, ptr %7, align 4, !tbaa !53
  %10 = load i64, ptr %2, align 4
  ret i64 %10
}

; Function Attrs: inlinehint nounwind uwtable
define internal ptr @ff_filter_link(ptr noundef %0) #6 {
  %2 = alloca ptr, align 8
  store ptr %0, ptr %2, align 8, !tbaa !40
  %3 = load ptr, ptr %2, align 8, !tbaa !40
  ret ptr %3
}

; Function Attrs: cold nounwind optsize uwtable
define internal i32 @config_props(ptr noundef %0) #0 {
  %2 = alloca i32, align 4
  %3 = alloca ptr, align 8
  %4 = alloca ptr, align 8
  %5 = alloca ptr, align 8
  %6 = alloca ptr, align 8
  %7 = alloca i32, align 4
  %8 = alloca %struct.AVRational, align 4
  %9 = alloca %struct.AVRational, align 4
  %10 = alloca %struct.AVRational, align 4
  %11 = alloca %struct.AVRational, align 4
  %12 = alloca %struct.AVRational, align 4
  %13 = alloca %struct.AVRational, align 4
  %14 = alloca %struct.AVRational, align 4
  %15 = alloca %struct.AVRational, align 4
  %16 = alloca i32, align 4
  store ptr %0, ptr %3, align 8, !tbaa !40
  call void @llvm.lifetime.start.p0(i64 8, ptr %4) #12
  %17 = load ptr, ptr %3, align 8, !tbaa !40
  %18 = call ptr @ff_filter_link(ptr noundef %17)
  store ptr %18, ptr %4, align 8, !tbaa !58
  call void @llvm.lifetime.start.p0(i64 8, ptr %5) #12
  %19 = load ptr, ptr %3, align 8, !tbaa !40
  %20 = getelementptr inbounds nuw %struct.AVFilterLink, ptr %19, i32 0, i32 0
  %21 = load ptr, ptr %20, align 8, !tbaa !45
  store ptr %21, ptr %5, align 8, !tbaa !4
  call void @llvm.lifetime.start.p0(i64 8, ptr %6) #12
  %22 = load ptr, ptr %5, align 8, !tbaa !4
  %23 = getelementptr inbounds nuw %struct.AVFilterContext, ptr %22, i32 0, i32 9
  %24 = load ptr, ptr %23, align 8, !tbaa !12
  store ptr %24, ptr %6, align 8, !tbaa !24
  call void @llvm.lifetime.start.p0(i64 4, ptr %7) #12
  %25 = load ptr, ptr %6, align 8, !tbaa !24
  %26 = getelementptr inbounds nuw %struct.AVSyncTestContext, ptr %25, i32 0, i32 1
  %27 = load i32, ptr %26, align 8, !tbaa !60
  %28 = load ptr, ptr %3, align 8, !tbaa !40
  %29 = getelementptr inbounds nuw %struct.AVFilterLink, ptr %28, i32 0, i32 6
  store i32 %27, ptr %29, align 8, !tbaa !61
  %30 = load ptr, ptr %6, align 8, !tbaa !24
  %31 = getelementptr inbounds nuw %struct.AVSyncTestContext, ptr %30, i32 0, i32 2
  %32 = load i32, ptr %31, align 4, !tbaa !62
  %33 = load ptr, ptr %3, align 8, !tbaa !40
  %34 = getelementptr inbounds nuw %struct.AVFilterLink, ptr %33, i32 0, i32 7
  store i32 %32, ptr %34, align 4, !tbaa !63
  %35 = load ptr, ptr %3, align 8, !tbaa !40
  %36 = getelementptr inbounds nuw %struct.AVFilterLink, ptr %35, i32 0, i32 13
  call void @llvm.lifetime.start.p0(i64 8, ptr %8) #12
  %37 = load ptr, ptr %6, align 8, !tbaa !24
  %38 = getelementptr inbounds nuw %struct.AVSyncTestContext, ptr %37, i32 0, i32 3
  %39 = load i64, ptr %38, align 8
  %40 = call i64 @av_inv_q(i64 %39)
  store i64 %40, ptr %8, align 4
  call void @llvm.memcpy.p0.p0.i64(ptr align 8 %36, ptr align 4 %8, i64 8, i1 false), !tbaa.struct !54
  call void @llvm.lifetime.end.p0(i64 8, ptr %8) #12
  %41 = load ptr, ptr %4, align 8, !tbaa !58
  %42 = getelementptr inbounds nuw %struct.FilterLink, ptr %41, i32 0, i32 10
  %43 = load ptr, ptr %6, align 8, !tbaa !24
  %44 = getelementptr inbounds nuw %struct.AVSyncTestContext, ptr %43, i32 0, i32 3
  call void @llvm.memcpy.p0.p0.i64(ptr align 8 %42, ptr align 8 %44, i64 8, i1 false), !tbaa.struct !54
  %45 = load ptr, ptr %3, align 8, !tbaa !40
  %46 = getelementptr inbounds nuw %struct.AVFilterLink, ptr %45, i32 0, i32 8
  %47 = getelementptr inbounds nuw %struct.AVRational, ptr %9, i32 0, i32 0
  store i32 1, ptr %47, align 4, !tbaa !52
  %48 = getelementptr inbounds nuw %struct.AVRational, ptr %9, i32 0, i32 1
  store i32 1, ptr %48, align 4, !tbaa !53
  call void @llvm.memcpy.p0.p0.i64(ptr align 8 %46, ptr align 4 %9, i64 8, i1 false), !tbaa.struct !54
  %49 = load ptr, ptr %6, align 8, !tbaa !24
  %50 = getelementptr inbounds nuw %struct.AVSyncTestContext, ptr %49, i32 0, i32 18
  call void @llvm.lifetime.start.p0(i64 8, ptr %10) #12
  %51 = load ptr, ptr %6, align 8, !tbaa !24
  %52 = getelementptr inbounds nuw %struct.AVSyncTestContext, ptr %51, i32 0, i32 3
  %53 = call i64 @av_make_q(i32 noundef -1, i32 noundef 2)
  store i64 %53, ptr %11, align 4
  %54 = load i64, ptr %52, align 8
  %55 = load i64, ptr %11, align 4
  %56 = call i64 @av_mul_q(i64 %54, i64 %55) #13
  store i64 %56, ptr %10, align 4
  call void @llvm.memcpy.p0.p0.i64(ptr align 8 %50, ptr align 4 %10, i64 8, i1 false), !tbaa.struct !54
  call void @llvm.lifetime.end.p0(i64 8, ptr %10) #12
  %57 = load ptr, ptr %6, align 8, !tbaa !24
  %58 = getelementptr inbounds nuw %struct.AVSyncTestContext, ptr %57, i32 0, i32 17
  call void @llvm.lifetime.start.p0(i64 8, ptr %12) #12
  %59 = load ptr, ptr %6, align 8, !tbaa !24
  %60 = getelementptr inbounds nuw %struct.AVSyncTestContext, ptr %59, i32 0, i32 18
  %61 = call i64 @av_make_q(i32 noundef -1, i32 noundef 1)
  store i64 %61, ptr %13, align 4
  %62 = load i64, ptr %60, align 8
  %63 = load i64, ptr %13, align 4
  %64 = call i64 @av_mul_q(i64 %62, i64 %63) #13
  store i64 %64, ptr %12, align 4
  call void @llvm.memcpy.p0.p0.i64(ptr align 8 %58, ptr align 4 %12, i64 8, i1 false), !tbaa.struct !54
  call void @llvm.lifetime.end.p0(i64 8, ptr %12) #12
  %65 = load ptr, ptr %6, align 8, !tbaa !24
  %66 = getelementptr inbounds nuw %struct.AVSyncTestContext, ptr %65, i32 0, i32 19
  call void @llvm.lifetime.start.p0(i64 8, ptr %14) #12
  %67 = load ptr, ptr %6, align 8, !tbaa !24
  %68 = getelementptr inbounds nuw %struct.AVSyncTestContext, ptr %67, i32 0, i32 17
  %69 = load ptr, ptr %6, align 8, !tbaa !24
  %70 = getelementptr inbounds nuw %struct.AVSyncTestContext, ptr %69, i32 0, i32 18
  %71 = load i64, ptr %68, align 8
  %72 = load i64, ptr %70, align 8
  %73 = call i64 @av_sub_q(i64 %71, i64 %72) #13
  store i64 %73, ptr %14, align 4
  call void @llvm.memcpy.p0.p0.i64(ptr align 8 %66, ptr align 4 %14, i64 8, i1 false), !tbaa.struct !54
  call void @llvm.lifetime.end.p0(i64 8, ptr %14) #12
  %74 = load ptr, ptr %6, align 8, !tbaa !24
  %75 = getelementptr inbounds nuw %struct.AVSyncTestContext, ptr %74, i32 0, i32 16
  call void @llvm.lifetime.start.p0(i64 8, ptr %15) #12
  %76 = load ptr, ptr %6, align 8, !tbaa !24
  %77 = getelementptr inbounds nuw %struct.AVSyncTestContext, ptr %76, i32 0, i32 10
  %78 = load i32, ptr %77, align 8, !tbaa !64
  %79 = call i64 @av_make_q(i32 noundef %78, i32 noundef 1)
  store i64 %79, ptr %15, align 4
  call void @llvm.memcpy.p0.p0.i64(ptr align 8 %75, ptr align 4 %15, i64 8, i1 false), !tbaa.struct !54
  call void @llvm.lifetime.end.p0(i64 8, ptr %15) #12
  %80 = load ptr, ptr %6, align 8, !tbaa !24
  %81 = getelementptr inbounds nuw %struct.AVSyncTestContext, ptr %80, i32 0, i32 15
  store i32 1, ptr %81, align 4, !tbaa !65
  %82 = load ptr, ptr %6, align 8, !tbaa !24
  %83 = getelementptr inbounds nuw %struct.AVSyncTestContext, ptr %82, i32 0, i32 20
  store i64 -9223372036854775808, ptr %83, align 8, !tbaa !66
  %84 = load ptr, ptr %6, align 8, !tbaa !24
  %85 = getelementptr inbounds nuw %struct.AVSyncTestContext, ptr %84, i32 0, i32 22
  %86 = load ptr, ptr %3, align 8, !tbaa !40
  %87 = getelementptr inbounds nuw %struct.AVFilterLink, ptr %86, i32 0, i32 5
  %88 = load i32, ptr %87, align 4, !tbaa !67
  %89 = load ptr, ptr %3, align 8, !tbaa !40
  %90 = getelementptr inbounds nuw %struct.AVFilterLink, ptr %89, i32 0, i32 9
  %91 = load i32, ptr %90, align 8, !tbaa !68
  %92 = load ptr, ptr %3, align 8, !tbaa !40
  %93 = getelementptr inbounds nuw %struct.AVFilterLink, ptr %92, i32 0, i32 10
  %94 = load i32, ptr %93, align 4, !tbaa !69
  %95 = call i32 @ff_draw_init2(ptr noundef %85, i32 noundef %88, i32 noundef %91, i32 noundef %94, i32 noundef 0)
  store i32 %95, ptr %7, align 4, !tbaa !34
  %96 = load i32, ptr %7, align 4, !tbaa !34
  %97 = icmp slt i32 %96, 0
  br i1 %97, label %98, label %101

98:                                               ; preds = %1
  %99 = load ptr, ptr %5, align 8, !tbaa !4
  call void (ptr, i32, ptr, ...) @av_log(ptr noundef %99, i32 noundef 16, ptr noundef @.str.4)
  %100 = load i32, ptr %7, align 4, !tbaa !34
  store i32 %100, ptr %2, align 4
  store i32 1, ptr %16, align 4
  br label %126

101:                                              ; preds = %1
  %102 = load ptr, ptr %6, align 8, !tbaa !24
  %103 = getelementptr inbounds nuw %struct.AVSyncTestContext, ptr %102, i32 0, i32 22
  %104 = load ptr, ptr %6, align 8, !tbaa !24
  %105 = getelementptr inbounds nuw %struct.AVSyncTestContext, ptr %104, i32 0, i32 23
  %106 = load ptr, ptr %6, align 8, !tbaa !24
  %107 = getelementptr inbounds nuw %struct.AVSyncTestContext, ptr %106, i32 0, i32 21
  %108 = getelementptr inbounds [3 x [4 x i8]], ptr %107, i64 0, i64 0
  %109 = getelementptr inbounds [4 x i8], ptr %108, i64 0, i64 0
  call void @ff_draw_color(ptr noundef %103, ptr noundef %105, ptr noundef %109)
  %110 = load ptr, ptr %6, align 8, !tbaa !24
  %111 = getelementptr inbounds nuw %struct.AVSyncTestContext, ptr %110, i32 0, i32 22
  %112 = load ptr, ptr %6, align 8, !tbaa !24
  %113 = getelementptr inbounds nuw %struct.AVSyncTestContext, ptr %112, i32 0, i32 24
  %114 = load ptr, ptr %6, align 8, !tbaa !24
  %115 = getelementptr inbounds nuw %struct.AVSyncTestContext, ptr %114, i32 0, i32 21
  %116 = getelementptr inbounds [3 x [4 x i8]], ptr %115, i64 0, i64 1
  %117 = getelementptr inbounds [4 x i8], ptr %116, i64 0, i64 0
  call void @ff_draw_color(ptr noundef %111, ptr noundef %113, ptr noundef %117)
  %118 = load ptr, ptr %6, align 8, !tbaa !24
  %119 = getelementptr inbounds nuw %struct.AVSyncTestContext, ptr %118, i32 0, i32 22
  %120 = load ptr, ptr %6, align 8, !tbaa !24
  %121 = getelementptr inbounds nuw %struct.AVSyncTestContext, ptr %120, i32 0, i32 25
  %122 = load ptr, ptr %6, align 8, !tbaa !24
  %123 = getelementptr inbounds nuw %struct.AVSyncTestContext, ptr %122, i32 0, i32 21
  %124 = getelementptr inbounds [3 x [4 x i8]], ptr %123, i64 0, i64 2
  %125 = getelementptr inbounds [4 x i8], ptr %124, i64 0, i64 0
  call void @ff_draw_color(ptr noundef %119, ptr noundef %121, ptr noundef %125)
  store i32 0, ptr %2, align 4
  store i32 1, ptr %16, align 4
  br label %126

126:                                              ; preds = %101, %98
  call void @llvm.lifetime.end.p0(i64 4, ptr %7) #12
  call void @llvm.lifetime.end.p0(i64 8, ptr %6) #12
  call void @llvm.lifetime.end.p0(i64 8, ptr %5) #12
  call void @llvm.lifetime.end.p0(i64 8, ptr %4) #12
  %127 = load i32, ptr %2, align 4
  ret i32 %127
}