; Function Attrs: cold nounwind optsize uwtable
define internal range(i32 -2147483648, 1) i32 @config_props(ptr noundef captures(none) initializes((40, 56), (96, 104), (264, 272)) %0) #0 {
  %2 = load ptr, ptr %0, align 8, !tbaa !37
  %3 = getelementptr inbounds nuw i8, ptr %2, i64 72
  %4 = load ptr, ptr %3, align 8, !tbaa !4
  %5 = getelementptr inbounds nuw i8, ptr %4, i64 8
  %6 = load i32, ptr %5, align 8, !tbaa !84
  %7 = getelementptr inbounds nuw i8, ptr %0, i64 40
  store i32 %6, ptr %7, align 8, !tbaa !59
  %8 = getelementptr inbounds nuw i8, ptr %4, i64 12
  %9 = load i32, ptr %8, align 4, !tbaa !85
  %10 = getelementptr inbounds nuw i8, ptr %0, i64 44
  store i32 %9, ptr %10, align 4, !tbaa !60
  %11 = getelementptr inbounds nuw i8, ptr %0, i64 96
  %12 = getelementptr inbounds nuw i8, ptr %4, i64 16
  %13 = load i64, ptr %12, align 8
  %.sroa.01.0.insert.insert.i = tail call i64 @llvm.fshl.i64(i64 %13, i64 %13, i64 32)
  store i64 %.sroa.01.0.insert.insert.i, ptr %11, align 8
  %14 = getelementptr inbounds nuw i8, ptr %0, i64 264
  %15 = load i64, ptr %12, align 8
  store i64 %15, ptr %14, align 8
  %16 = getelementptr inbounds nuw i8, ptr %0, i64 48
  store i32 1, ptr %16, align 8, !tbaa !28
  %.sroa.2.0..sroa_idx = getelementptr inbounds nuw i8, ptr %0, i64 52
  store i32 1, ptr %.sroa.2.0..sroa_idx, align 4, !tbaa !28
  %17 = getelementptr inbounds nuw i8, ptr %4, i64 104
  %18 = load i64, ptr %12, align 8
  %19 = tail call i64 @av_mul_q(i64 %18, i64 12884901887) #11
  store i64 %19, ptr %17, align 8
  %20 = getelementptr inbounds nuw i8, ptr %4, i64 96
  %21 = tail call i64 @av_mul_q(i64 %19, i64 8589934591) #11
  store i64 %21, ptr %20, align 8
  %22 = getelementptr inbounds nuw i8, ptr %4, i64 112
  %23 = tail call i64 @av_sub_q(i64 %21, i64 %19) #11
  store i64 %23, ptr %22, align 8
  %24 = getelementptr inbounds nuw i8, ptr %4, i64 88
  %25 = getelementptr inbounds nuw i8, ptr %4, i64 64
  %26 = load i32, ptr %25, align 8, !tbaa !64
  %.sroa.0.0.insert.ext.i = zext i32 %26 to i64
  %.sroa.0.0.insert.insert.i = or disjoint i64 %.sroa.0.0.insert.ext.i, 4294967296
  store i64 %.sroa.0.0.insert.insert.i, ptr %24, align 8
  %27 = getelementptr inbounds nuw i8, ptr %4, i64 84
  store i32 1, ptr %27, align 4, !tbaa !76
  %28 = getelementptr inbounds nuw i8, ptr %4, i64 120
  store i64 -9223372036854775808, ptr %28, align 8, !tbaa !74
  %29 = getelementptr inbounds nuw i8, ptr %4, i64 144
  %30 = getelementptr inbounds nuw i8, ptr %0, i64 36
  %31 = load i32, ptr %30, align 4, !tbaa !86
  %32 = getelementptr inbounds nuw i8, ptr %0, i64 56
  %33 = load i32, ptr %32, align 8, !tbaa !87
  %34 = getelementptr inbounds nuw i8, ptr %0, i64 60
  %35 = load i32, ptr %34, align 4, !tbaa !88
  %36 = tail call i32 @ff_draw_init2(ptr noundef nonnull %29, i32 noundef %31, i32 noundef %33, i32 noundef %35, i32 noundef 0) #10
  %37 = icmp slt i32 %36, 0
  br i1 %37, label %38, label %39

38:                                               ; preds = %1
  tail call void (ptr, i32, ptr, ...) @av_log(ptr noundef nonnull %2, i32 noundef 16, ptr noundef nonnull @.str.4) #10
  br label %46

39:                                               ; preds = %1
  %40 = getelementptr inbounds nuw i8, ptr %4, i64 272
  %41 = getelementptr inbounds nuw i8, ptr %4, i64 128
  tail call void @ff_draw_color(ptr noundef nonnull %29, ptr noundef nonnull %40, ptr noundef nonnull %41) #10
  %42 = getelementptr inbounds nuw i8, ptr %4, i64 340
  %43 = getelementptr inbounds nuw i8, ptr %4, i64 132
  tail call void @ff_draw_color(ptr noundef nonnull %29, ptr noundef nonnull %42, ptr noundef nonnull %43) #10
  %44 = getelementptr inbounds nuw i8, ptr %4, i64 408
  %45 = getelementptr inbounds nuw i8, ptr %4, i64 136
  tail call void @ff_draw_color(ptr noundef nonnull %29, ptr noundef nonnull %44, ptr noundef nonnull %45) #10
  br label %46

46:                                               ; preds = %39, %38
  %.0 = phi i32 [ %36, %38 ], [ 0, %39 ]
  ret i32 %.0
}